target datalayout = "e-m:e-p270:32:32-p271:32:32-p272:64:64-i64:64-i128:128-f80:128-n8:16:32:64-S128"
target triple = "x86_64-pc-linux-gnu"

%struct.RelationData = type { %struct.RelFileLocator, ptr, i32, i32, i8, i8, i8, i8, i8, i32, i32, i32, i32, ptr, ptr, i32, %struct.LockInfoData, ptr, ptr, ptr, ptr, ptr, i8, ptr, ptr, ptr, ptr, ptr, ptr, i32, ptr, i8, ptr, ptr, i32, i8, i32, ptr, i8, ptr, ptr, ptr, ptr, ptr, ptr, ptr, i32, ptr, ptr, ptr, ptr, ptr, ptr, ptr, ptr, ptr, ptr, ptr, ptr, ptr, ptr, ptr, ptr, ptr, ptr, ptr, i32, i8, ptr }
%struct.RelFileLocator = type { i32, i32, i32 }
%struct.LockInfoData = type { %struct.LockRelId }
%struct.LockRelId = type { i32, i32 }
%struct.FormData_pg_class = type { i32, %struct.nameData, i32, i32, i32, i32, i32, i32, i32, i32, float, i32, i32, i8, i8, i8, i8, i16, i16, i8, i8, i8, i8, i8, i8, i8, i8, i32, i32, i32 }
%struct.nameData = type { [64 x i8] }
%struct.PgStat_TableStatus = type { i32, i8, ptr, %struct.PgStat_TableCounts, ptr }
%struct.PgStat_TableCounts = type { i64, i64, i64, i64, i64, i64, i64, i64, i8, i64, i64, i64, i64, i64 }
%struct.PgStat_TableXactStatus = type { i64, i64, i64, i8, i64, i64, i64, i32, ptr, ptr, ptr }

@MyDatabaseId = external global i32, align 4

; Function Attrs: nounwind uwtable
define internal void @save_truncdrop_counters(ptr noundef %0, i1 noundef zeroext %1) #0 {
  %3 = alloca ptr, align 8
  %4 = alloca i8, align 1
  store ptr %0, ptr %3, align 8
  %5 = zext i1 %1 to i8
  store i8 %5, ptr %4, align 1
  %6 = load ptr, ptr %3, align 8
  %7 = getelementptr inbounds nuw %struct.PgStat_TableXactStatus, ptr %6, i32 0, i32 3
  %8 = load i8, ptr %7, align 8, !range !4, !noundef !5
  %9 = trunc i8 %8 to i1
  br i1 %9, label %10, label %13

10:                                               ; preds = %2
  %11 = load i8, ptr %4, align 1, !range !4, !noundef !5
  %12 = trunc i8 %11 to i1
  br i1 %12, label %13, label %31

13:                                               ; preds = %10, %2
  %14 = load ptr, ptr %3, align 8
  %15 = getelementptr inbounds nuw %struct.PgStat_TableXactStatus, ptr %14, i32 0, i32 0
  %16 = load i64, ptr %15, align 8
  %17 = load ptr, ptr %3, align 8
  %18 = getelementptr inbounds nuw %struct.PgStat_TableXactStatus, ptr %17, i32 0, i32 4
  store i64 %16, ptr %18, align 8
  %19 = load ptr, ptr %3, align 8
  %20 = getelementptr inbounds nuw %struct.PgStat_TableXactStatus, ptr %19, i32 0, i32 1
  %21 = load i64, ptr %20, align 8
  %22 = load ptr, ptr %3, align 8
  %23 = getelementptr inbounds nuw %struct.PgStat_TableXactStatus, ptr %22, i32 0, i32 5
  store i64 %21, ptr %23, align 8
  %24 = load ptr, ptr %3, align 8
  %25 = getelementptr inbounds nuw %struct.PgStat_TableXactStatus, ptr %24, i32 0, i32 2
  %26 = load i64, ptr %25, align 8
  %27 = load ptr, ptr %3, align 8
  %28 = getelementptr inbounds nuw %struct.PgStat_TableXactStatus, ptr %27, i32 0, i32 6
  store i64 %26, ptr %28, align 8
  %29 = load ptr, ptr %3, align 8
  %30 = getelementptr inbounds nuw %struct.PgStat_TableXactStatus, ptr %29, i32 0, i32 3
  store i8 1, ptr %30, align 8
  br label %31

31:                                               ; preds = %13, %10
  ret void
}

; Function Attrs: nounwind uwtable
define dso_local void @pgstat_drop_relation(ptr noundef %0) #0 {
  %2 = alloca ptr, align 8
  %3 = alloca i32, align 4
  %4 = alloca ptr, align 8
  %5 = alloca i32, align 4
  store ptr %0, ptr %2, align 8
  call void @llvm.lifetime.start.p0(i64 4, ptr %3) #6
  %6 = call i32 @GetCurrentTransactionNestLevel()
  store i32 %6, ptr %3, align 4
  call void @llvm.lifetime.start.p0(i64 8, ptr %4) #6
  %7 = load ptr, ptr %2, align 8
  %8 = getelementptr inbounds nuw %struct.RelationData, ptr %7, i32 0, i32 13
  %9 = load ptr, ptr %8, align 8
  %10 = getelementptr inbounds nuw %struct.FormData_pg_class, ptr %9, i32 0, i32 14
  %11 = load i8, ptr %10, align 1, !range !4, !noundef !5
  %12 = trunc i8 %11 to i1
  br i1 %12, label %13, label %14

13:                                               ; preds = %1
  br label %16

14:                                               ; preds = %1
  %15 = load i32, ptr @MyDatabaseId, align 4
  br label %16

16:                                               ; preds = %14, %13
  %17 = phi i32 [ 0, %13 ], [ %15, %14 ]
  %18 = load ptr, ptr %2, align 8
  %19 = getelementptr inbounds nuw %struct.RelationData, ptr %18, i32 0, i32 15
  %20 = load i32, ptr %19, align 8
  %21 = zext i32 %20 to i64
  call void @pgstat_drop_transactional(i32 noundef 2, i32 noundef %17, i64 noundef %21)
  %22 = load ptr, ptr %2, align 8
  %23 = getelementptr inbounds nuw %struct.RelationData, ptr %22, i32 0, i32 68
  %24 = load ptr, ptr %23, align 8
  %25 = icmp ne ptr %24, null
  %26 = zext i1 %25 to i32
  %27 = icmp ne i32 %26, 0
  %28 = zext i1 %27 to i32
  %29 = sext i32 %28 to i64
  %30 = call i64 @llvm.expect.i64(i64 %29, i64 1)
  %31 = icmp ne i64 %30, 0
  br i1 %31, label %32, label %33

32:                                               ; preds = %16
  br i1 true, label %42, label %41

33:                                               ; preds = %16
  %34 = load ptr, ptr %2, align 8
  %35 = getelementptr inbounds nuw %struct.RelationData, ptr %34, i32 0, i32 67
  %36 = load i8, ptr %35, align 4, !range !4, !noundef !5
  %37 = trunc i8 %36 to i1
  br i1 %37, label %38, label %40

38:                                               ; preds = %33
  %39 = load ptr, ptr %2, align 8
  call void @pgstat_assoc_relation(ptr noundef %39)
  br i1 true, label %42, label %41

40:                                               ; preds = %33
  br i1 false, label %42, label %41

41:                                               ; preds = %40, %38, %32
  store i32 1, ptr %5, align 4
  br label %75

42:                                               ; preds = %40, %38, %32
  %43 = load ptr, ptr %2, align 8
  %44 = getelementptr inbounds nuw %struct.RelationData, ptr %43, i32 0, i32 68
  %45 = load ptr, ptr %44, align 8
  store ptr %45, ptr %4, align 8
  %46 = load ptr, ptr %4, align 8
  %47 = getelementptr inbounds nuw %struct.PgStat_TableStatus, ptr %46, i32 0, i32 2
  %48 = load ptr, ptr %47, align 8
  %49 = icmp ne ptr %48, null
  br i1 %49, label %50, label %74

50:                                               ; preds = %42
  %51 = load ptr, ptr %4, align 8
  %52 = getelementptr inbounds nuw %struct.PgStat_TableStatus, ptr %51, i32 0, i32 2
  %53 = load ptr, ptr %52, align 8
  %54 = getelementptr inbounds nuw %struct.PgStat_TableXactStatus, ptr %53, i32 0, i32 7
  %55 = load i32, ptr %54, align 8
  %56 = load i32, ptr %3, align 4
  %57 = icmp eq i32 %55, %56
  br i1 %57, label %58, label %74

58:                                               ; preds = %50
  %59 = load ptr, ptr %4, align 8
  %60 = getelementptr inbounds nuw %struct.PgStat_TableStatus, ptr %59, i32 0, i32 2
  %61 = load ptr, ptr %60, align 8
  call void @save_truncdrop_counters(ptr noundef %61, i1 noundef zeroext true)
  %62 = load ptr, ptr %4, align 8
  %63 = getelementptr inbounds nuw %struct.PgStat_TableStatus, ptr %62, i32 0, i32 2
  %64 = load ptr, ptr %63, align 8
  %65 = getelementptr inbounds nuw %struct.PgStat_TableXactStatus, ptr %64, i32 0, i32 0
  store i64 0, ptr %65, align 8
  %66 = load ptr, ptr %4, align 8
  %67 = getelementptr inbounds nuw %struct.PgStat_TableStatus, ptr %66, i32 0, i32 2
  %68 = load ptr, ptr %67, align 8
  %69 = getelementptr inbounds nuw %struct.PgStat_TableXactStatus, ptr %68, i32 0, i32 1
  store i64 0, ptr %69, align 8
  %70 = load ptr, ptr %4, align 8
  %71 = getelementptr inbounds nuw %struct.PgStat_TableStatus, ptr %70, i32 0, i32 2
  %72 = load ptr, ptr %71, align 8
  %73 = getelementptr inbounds nuw %struct.PgStat_TableXactStatus, ptr %72, i32 0, i32 2
  store i64 0, ptr %73, align 8
  br label %74

74:                                               ; preds = %58, %50, %42
  store i32 0, ptr %5, align 4
  br label %75

75:                                               ; preds = %74, %41
  call void @llvm.lifetime.end.p0(i64 8, ptr %4) #6
  call void @llvm.lifetime.end.p0(i64 4, ptr %3) #6
  %76 = load i32, ptr %5, align 4
  switch i32 %76, label %78 [
    i32 0, label %77
    i32 1, label %77
  ]

77:                                               ; preds = %75, %75
  ret void

78:                                               ; preds = %75
  unreachable
}