; Function Attrs: nounwind uwtable
define dso_local void @pgstat_drop_relation(ptr noundef %0) local_unnamed_addr #0 {
  %2 = tail call i32 @GetCurrentTransactionNestLevel() #9
  %3 = getelementptr inbounds nuw i8, ptr %0, i64 56
  %4 = load ptr, ptr %3, align 8
  %5 = getelementptr inbounds nuw i8, ptr %4, i64 113
  %6 = load i8, ptr %5, align 1, !range !4, !noundef !5
  %7 = trunc nuw i8 %6 to i1
  %8 = load i32, ptr @MyDatabaseId, align 4
  %9 = select i1 %7, i32 0, i32 %8
  %10 = getelementptr inbounds nuw i8, ptr %0, i64 72
  %11 = load i32, ptr %10, align 8
  %12 = zext i32 %11 to i64
  tail call void @pgstat_drop_transactional(i32 noundef 2, i32 noundef %9, i64 noundef %12) #9
  %13 = getelementptr inbounds nuw i8, ptr %0, i64 480
  %14 = load ptr, ptr %13, align 8
  %.not = icmp eq ptr %14, null
  br i1 %.not, label %15, label %20, !prof !6

15:                                               ; preds = %1
  %16 = getelementptr inbounds nuw i8, ptr %0, i64 476
  %17 = load i8, ptr %16, align 4, !range !4, !noundef !5
  %18 = trunc nuw i8 %17 to i1
  br i1 %18, label %19, label %43

19:                                               ; preds = %15
  tail call void @pgstat_assoc_relation(ptr noundef nonnull %0)
  %.pre = load ptr, ptr %13, align 8
  br label %20

20:                                               ; preds = %1, %19
  %21 = phi ptr [ %14, %1 ], [ %.pre, %19 ]
  %22 = getelementptr inbounds nuw i8, ptr %21, i64 8
  %23 = load ptr, ptr %22, align 8
  %.not12 = icmp eq ptr %23, null
  br i1 %.not12, label %43, label %24

24:                                               ; preds = %20
  %25 = getelementptr inbounds nuw i8, ptr %23, i64 56
  %26 = load i32, ptr %25, align 8
  %27 = icmp eq i32 %26, %2
  br i1 %27, label %28, label %43

28:                                               ; preds = %24
  %29 = getelementptr inbounds nuw i8, ptr %23, i64 24
  %30 = load i64, ptr %23, align 8
  %31 = getelementptr inbounds nuw i8, ptr %23, i64 32
  store i64 %30, ptr %31, align 8
  %32 = getelementptr inbounds nuw i8, ptr %23, i64 8
  %33 = load i64, ptr %32, align 8
  %34 = getelementptr inbounds nuw i8, ptr %23, i64 40
  store i64 %33, ptr %34, align 8
  %35 = getelementptr inbounds nuw i8, ptr %23, i64 16
  %36 = load i64, ptr %35, align 8
  %37 = getelementptr inbounds nuw i8, ptr %23, i64 48
  store i64 %36, ptr %37, align 8
  store i8 1, ptr %29, align 8
  %38 = load ptr, ptr %22, align 8
  store i64 0, ptr %38, align 8
  %39 = load ptr, ptr %22, align 8
  %40 = getelementptr inbounds nuw i8, ptr %39, i64 8
  store i64 0, ptr %40, align 8
  %41 = load ptr, ptr %22, align 8
  %42 = getelementptr inbounds nuw i8, ptr %41, i64 16
  store i64 0, ptr %42, align 8
  br label %43

43:                                               ; preds = %20, %24, %28, %15
  ret void
}